; Function Attrs: mustprogress uwtable
define noundef zeroext i1 @_ZN5boost3log11v2_mt_posix3aux17code_convert_implEPKDimRNSt7__cxx1112basic_stringIcSt11char_traitsIcESaIcEEEmRKSt6locale(ptr noundef %0, i64 noundef %1, ptr noundef nonnull align 8 dereferenceable(32) %2, i64 noundef %3, ptr nocapture noundef nonnull readonly align 8 dereferenceable(8) %4) local_unnamed_addr #1 {
  %6 = tail call noundef i64 @_ZNKSt6locale2id5_M_idEv(ptr noundef nonnull align 8 dereferenceable(8) @_ZNSt7codecvtIDic11__mbstate_tE2idE) #12
  %7 = load ptr, ptr %4, align 8, !tbaa !18
  %8 = getelementptr inbounds nuw i8, ptr %7, i64 16
  %9 = load i64, ptr %8, align 8, !tbaa !20
  %.not.i = icmp ult i64 %6, %9
  br i1 %.not.i, label %10, label %15

10:                                               ; preds = %5
  %11 = getelementptr inbounds nuw i8, ptr %7, i64 8
  %12 = load ptr, ptr %11, align 8, !tbaa !23
  %13 = getelementptr inbounds nuw ptr, ptr %12, i64 %6
  %14 = load ptr, ptr %13, align 8, !tbaa !3
  %.not8.i = icmp eq ptr %14, null
  br i1 %.not8.i, label %15, label %16

15:                                               ; preds = %10, %5
  tail call void @_ZSt16__throw_bad_castv() #13
  unreachable

16:                                               ; preds = %10
  %17 = tail call ptr @__dynamic_cast(ptr nonnull %14, ptr nonnull @_ZTINSt6locale5facetE, ptr nonnull @_ZTISt7codecvtIDic11__mbstate_tE, i64 0) #12
  %18 = icmp eq ptr %17, null
  br i1 %18, label %19, label %_ZSt9use_facetISt7codecvtIDic11__mbstate_tEERKT_RKSt6locale.exit

19:                                               ; preds = %16
  tail call void @__cxa_bad_cast() #13
  unreachable

_ZSt9use_facetISt7codecvtIDic11__mbstate_tEERKT_RKSt6locale.exit: ; preds = %16
  %20 = getelementptr inbounds nuw i32, ptr %0, i64 %1
  %21 = tail call noundef i64 @_ZN5boost3log11v2_mt_posix3aux12code_convertIDicSt7codecvtIDic11__mbstate_tEEEmPKT_S9_RNSt7__cxx1112basic_stringIT0_St11char_traitsISC_ESaISC_EEEmRKT1_(ptr noundef %0, ptr noundef %20, ptr noundef nonnull align 8 dereferenceable(32) %2, i64 noundef %3, ptr noundef nonnull align 8 dereferenceable(12) %17)
  %22 = icmp eq i64 %21, %1
  ret i1 %22
}